target datalayout = "e-m:e-p270:32:32-p271:32:32-p272:64:64-i64:64-i128:128-f80:128-n8:16:32:64-S128"
target triple = "x86_64-pc-linux-gnu"

%struct.mbedtls_cipher_info_t = type { i32, i32, i32, ptr, i32, i32, i32, ptr }
%struct.mbedtls_gcm_context = type { %struct.mbedtls_cipher_context_t, [16 x i64], [16 x i64], i64, i64, [16 x i8], [16 x i8], [16 x i8], i32 }
%struct.mbedtls_cipher_context_t = type { ptr, i32, i32, [16 x i8], i64, [16 x i8], i64, ptr }

; Function Attrs: mustprogress uwtable
define internal noundef i32 @_ZL13gcm_gen_tableP19mbedtls_gcm_context(ptr noundef %0) #2 {
  %2 = alloca i32, align 4
  %3 = alloca ptr, align 8
  %4 = alloca i32, align 4
  %5 = alloca i32, align 4
  %6 = alloca i32, align 4
  %7 = alloca i64, align 8
  %8 = alloca i64, align 8
  %9 = alloca i64, align 8
  %10 = alloca i64, align 8
  %11 = alloca [16 x i8], align 16
  %12 = alloca i64, align 8
  %13 = alloca i32, align 4
  %14 = alloca i32, align 4
  %15 = alloca ptr, align 8
  %16 = alloca ptr, align 8
  store ptr %0, ptr %3, align 8, !tbaa !3
  call void @llvm.lifetime.start.p0(i64 4, ptr %4) #6
  call void @llvm.lifetime.start.p0(i64 4, ptr %5) #6
  call void @llvm.lifetime.start.p0(i64 4, ptr %6) #6
  call void @llvm.lifetime.start.p0(i64 8, ptr %7) #6
  call void @llvm.lifetime.start.p0(i64 8, ptr %8) #6
  call void @llvm.lifetime.start.p0(i64 8, ptr %9) #6
  call void @llvm.lifetime.start.p0(i64 8, ptr %10) #6
  call void @llvm.lifetime.start.p0(i64 16, ptr %11) #6
  call void @llvm.lifetime.start.p0(i64 8, ptr %12) #6
  store i64 0, ptr %12, align 8, !tbaa !21
  %17 = getelementptr inbounds [16 x i8], ptr %11, i64 0, i64 0
  call void @llvm.memset.p0.i64(ptr align 16 %17, i8 0, i64 16, i1 false)
  %18 = load ptr, ptr %3, align 8, !tbaa !3
  %19 = getelementptr inbounds nuw %struct.mbedtls_gcm_context, ptr %18, i32 0, i32 0
  %20 = getelementptr inbounds [16 x i8], ptr %11, i64 0, i64 0
  %21 = getelementptr inbounds [16 x i8], ptr %11, i64 0, i64 0
  %22 = call i32 @mbedtls_cipher_update(ptr noundef %19, ptr noundef %20, i64 noundef 16, ptr noundef %21, ptr noundef %12)
  store i32 %22, ptr %4, align 4, !tbaa !12
  %23 = icmp ne i32 %22, 0
  br i1 %23, label %24, label %26

24:                                               ; preds = %1
  %25 = load i32, ptr %4, align 4, !tbaa !12
  store i32 %25, ptr %2, align 4
  store i32 1, ptr %13, align 4
  br label %217

26:                                               ; preds = %1
  %27 = getelementptr inbounds [16 x i8], ptr %11, i64 0, i64 0
  %28 = load i8, ptr %27, align 16, !tbaa !23
  %29 = zext i8 %28 to i32
  %30 = shl i32 %29, 24
  %31 = getelementptr inbounds [16 x i8], ptr %11, i64 0, i64 1
  %32 = load i8, ptr %31, align 1, !tbaa !23
  %33 = zext i8 %32 to i32
  %34 = shl i32 %33, 16
  %35 = or i32 %30, %34
  %36 = getelementptr inbounds [16 x i8], ptr %11, i64 0, i64 2
  %37 = load i8, ptr %36, align 2, !tbaa !23
  %38 = zext i8 %37 to i32
  %39 = shl i32 %38, 8
  %40 = or i32 %35, %39
  %41 = getelementptr inbounds [16 x i8], ptr %11, i64 0, i64 3
  %42 = load i8, ptr %41, align 1, !tbaa !23
  %43 = zext i8 %42 to i32
  %44 = or i32 %40, %43
  %45 = zext i32 %44 to i64
  store i64 %45, ptr %7, align 8, !tbaa !21
  %46 = getelementptr inbounds [16 x i8], ptr %11, i64 0, i64 4
  %47 = load i8, ptr %46, align 4, !tbaa !23
  %48 = zext i8 %47 to i32
  %49 = shl i32 %48, 24
  %50 = getelementptr inbounds [16 x i8], ptr %11, i64 0, i64 5
  %51 = load i8, ptr %50, align 1, !tbaa !23
  %52 = zext i8 %51 to i32
  %53 = shl i32 %52, 16
  %54 = or i32 %49, %53
  %55 = getelementptr inbounds [16 x i8], ptr %11, i64 0, i64 6
  %56 = load i8, ptr %55, align 2, !tbaa !23
  %57 = zext i8 %56 to i32
  %58 = shl i32 %57, 8
  %59 = or i32 %54, %58
  %60 = getelementptr inbounds [16 x i8], ptr %11, i64 0, i64 7
  %61 = load i8, ptr %60, align 1, !tbaa !23
  %62 = zext i8 %61 to i32
  %63 = or i32 %59, %62
  %64 = zext i32 %63 to i64
  store i64 %64, ptr %8, align 8, !tbaa !21
  %65 = load i64, ptr %7, align 8, !tbaa !21
  %66 = shl i64 %65, 32
  %67 = load i64, ptr %8, align 8, !tbaa !21
  %68 = or i64 %66, %67
  store i64 %68, ptr %10, align 8, !tbaa !21
  %69 = getelementptr inbounds [16 x i8], ptr %11, i64 0, i64 8
  %70 = load i8, ptr %69, align 8, !tbaa !23
  %71 = zext i8 %70 to i32
  %72 = shl i32 %71, 24
  %73 = getelementptr inbounds [16 x i8], ptr %11, i64 0, i64 9
  %74 = load i8, ptr %73, align 1, !tbaa !23
  %75 = zext i8 %74 to i32
  %76 = shl i32 %75, 16
  %77 = or i32 %72, %76
  %78 = getelementptr inbounds [16 x i8], ptr %11, i64 0, i64 10
  %79 = load i8, ptr %78, align 2, !tbaa !23
  %80 = zext i8 %79 to i32
  %81 = shl i32 %80, 8
  %82 = or i32 %77, %81
  %83 = getelementptr inbounds [16 x i8], ptr %11, i64 0, i64 11
  %84 = load i8, ptr %83, align 1, !tbaa !23
  %85 = zext i8 %84 to i32
  %86 = or i32 %82, %85
  %87 = zext i32 %86 to i64
  store i64 %87, ptr %7, align 8, !tbaa !21
  %88 = getelementptr inbounds [16 x i8], ptr %11, i64 0, i64 12
  %89 = load i8, ptr %88, align 4, !tbaa !23
  %90 = zext i8 %89 to i32
  %91 = shl i32 %90, 24
  %92 = getelementptr inbounds [16 x i8], ptr %11, i64 0, i64 13
  %93 = load i8, ptr %92, align 1, !tbaa !23
  %94 = zext i8 %93 to i32
  %95 = shl i32 %94, 16
  %96 = or i32 %91, %95
  %97 = getelementptr inbounds [16 x i8], ptr %11, i64 0, i64 14
  %98 = load i8, ptr %97, align 2, !tbaa !23
  %99 = zext i8 %98 to i32
  %100 = shl i32 %99, 8
  %101 = or i32 %96, %100
  %102 = getelementptr inbounds [16 x i8], ptr %11, i64 0, i64 15
  %103 = load i8, ptr %102, align 1, !tbaa !23
  %104 = zext i8 %103 to i32
  %105 = or i32 %101, %104
  %106 = zext i32 %105 to i64
  store i64 %106, ptr %8, align 8, !tbaa !21
  %107 = load i64, ptr %7, align 8, !tbaa !21
  %108 = shl i64 %107, 32
  %109 = load i64, ptr %8, align 8, !tbaa !21
  %110 = or i64 %108, %109
  store i64 %110, ptr %9, align 8, !tbaa !21
  %111 = load i64, ptr %9, align 8, !tbaa !21
  %112 = load ptr, ptr %3, align 8, !tbaa !3
  %113 = getelementptr inbounds nuw %struct.mbedtls_gcm_context, ptr %112, i32 0, i32 1
  %114 = getelementptr inbounds [16 x i64], ptr %113, i64 0, i64 8
  store i64 %111, ptr %114, align 8, !tbaa !21
  %115 = load i64, ptr %10, align 8, !tbaa !21
  %116 = load ptr, ptr %3, align 8, !tbaa !3
  %117 = getelementptr inbounds nuw %struct.mbedtls_gcm_context, ptr %116, i32 0, i32 2
  %118 = getelementptr inbounds [16 x i64], ptr %117, i64 0, i64 8
  store i64 %115, ptr %118, align 8, !tbaa !21
  %119 = load ptr, ptr %3, align 8, !tbaa !3
  %120 = getelementptr inbounds nuw %struct.mbedtls_gcm_context, ptr %119, i32 0, i32 2
  %121 = getelementptr inbounds [16 x i64], ptr %120, i64 0, i64 0
  store i64 0, ptr %121, align 8, !tbaa !21
  %122 = load ptr, ptr %3, align 8, !tbaa !3
  %123 = getelementptr inbounds nuw %struct.mbedtls_gcm_context, ptr %122, i32 0, i32 1
  %124 = getelementptr inbounds [16 x i64], ptr %123, i64 0, i64 0
  store i64 0, ptr %124, align 8, !tbaa !21
  store i32 4, ptr %5, align 4, !tbaa !12
  br label %125

125:                                              ; preds = %156, %26
  %126 = load i32, ptr %5, align 4, !tbaa !12
  %127 = icmp sgt i32 %126, 0
  br i1 %127, label %128, label %159

128:                                              ; preds = %125
  call void @llvm.lifetime.start.p0(i64 4, ptr %14) #6
  %129 = load i64, ptr %9, align 8, !tbaa !21
  %130 = and i64 %129, 1
  %131 = mul i64 %130, 3774873600
  %132 = trunc i64 %131 to i32
  store i32 %132, ptr %14, align 4, !tbaa !12
  %133 = load i64, ptr %10, align 8, !tbaa !21
  %134 = shl i64 %133, 63
  %135 = load i64, ptr %9, align 8, !tbaa !21
  %136 = lshr i64 %135, 1
  %137 = or i64 %134, %136
  store i64 %137, ptr %9, align 8, !tbaa !21
  %138 = load i64, ptr %10, align 8, !tbaa !21
  %139 = lshr i64 %138, 1
  %140 = load i32, ptr %14, align 4, !tbaa !12
  %141 = zext i32 %140 to i64
  %142 = shl i64 %141, 32
  %143 = xor i64 %139, %142
  store i64 %143, ptr %10, align 8, !tbaa !21
  %144 = load i64, ptr %9, align 8, !tbaa !21
  %145 = load ptr, ptr %3, align 8, !tbaa !3
  %146 = getelementptr inbounds nuw %struct.mbedtls_gcm_context, ptr %145, i32 0, i32 1
  %147 = load i32, ptr %5, align 4, !tbaa !12
  %148 = sext i32 %147 to i64
  %149 = getelementptr inbounds [16 x i64], ptr %146, i64 0, i64 %148
  store i64 %144, ptr %149, align 8, !tbaa !21
  %150 = load i64, ptr %10, align 8, !tbaa !21
  %151 = load ptr, ptr %3, align 8, !tbaa !3
  %152 = getelementptr inbounds nuw %struct.mbedtls_gcm_context, ptr %151, i32 0, i32 2
  %153 = load i32, ptr %5, align 4, !tbaa !12
  %154 = sext i32 %153 to i64
  %155 = getelementptr inbounds [16 x i64], ptr %152, i64 0, i64 %154
  store i64 %150, ptr %155, align 8, !tbaa !21
  call void @llvm.lifetime.end.p0(i64 4, ptr %14) #6
  br label %156

156:                                              ; preds = %128
  %157 = load i32, ptr %5, align 4, !tbaa !12
  %158 = ashr i32 %157, 1
  store i32 %158, ptr %5, align 4, !tbaa !12
  br label %125, !llvm.loop !24

159:                                              ; preds = %125
  store i32 2, ptr %5, align 4, !tbaa !12
  br label %160

160:                                              ; preds = %213, %159
  %161 = load i32, ptr %5, align 4, !tbaa !12
  %162 = icmp sle i32 %161, 8
  br i1 %162, label %163, label %216

163:                                              ; preds = %160
  call void @llvm.lifetime.start.p0(i64 8, ptr %15) #6
  %164 = load ptr, ptr %3, align 8, !tbaa !3
  %165 = getelementptr inbounds nuw %struct.mbedtls_gcm_context, ptr %164, i32 0, i32 1
  %166 = getelementptr inbounds [16 x i64], ptr %165, i64 0, i64 0
  %167 = load i32, ptr %5, align 4, !tbaa !12
  %168 = sext i32 %167 to i64
  %169 = getelementptr inbounds i64, ptr %166, i64 %168
  store ptr %169, ptr %15, align 8, !tbaa !26
  call void @llvm.lifetime.start.p0(i64 8, ptr %16) #6
  %170 = load ptr, ptr %3, align 8, !tbaa !3
  %171 = getelementptr inbounds nuw %struct.mbedtls_gcm_context, ptr %170, i32 0, i32 2
  %172 = getelementptr inbounds [16 x i64], ptr %171, i64 0, i64 0
  %173 = load i32, ptr %5, align 4, !tbaa !12
  %174 = sext i32 %173 to i64
  %175 = getelementptr inbounds i64, ptr %172, i64 %174
  store ptr %175, ptr %16, align 8, !tbaa !26
  %176 = load ptr, ptr %16, align 8, !tbaa !26
  %177 = load i64, ptr %176, align 8, !tbaa !21
  store i64 %177, ptr %10, align 8, !tbaa !21
  %178 = load ptr, ptr %15, align 8, !tbaa !26
  %179 = load i64, ptr %178, align 8, !tbaa !21
  store i64 %179, ptr %9, align 8, !tbaa !21
  store i32 1, ptr %6, align 4, !tbaa !12
  br label %180

180:                                              ; preds = %209, %163
  %181 = load i32, ptr %6, align 4, !tbaa !12
  %182 = load i32, ptr %5, align 4, !tbaa !12
  %183 = icmp slt i32 %181, %182
  br i1 %183, label %184, label %212

184:                                              ; preds = %180
  %185 = load i64, ptr %10, align 8, !tbaa !21
  %186 = load ptr, ptr %3, align 8, !tbaa !3
  %187 = getelementptr inbounds nuw %struct.mbedtls_gcm_context, ptr %186, i32 0, i32 2
  %188 = load i32, ptr %6, align 4, !tbaa !12
  %189 = sext i32 %188 to i64
  %190 = getelementptr inbounds [16 x i64], ptr %187, i64 0, i64 %189
  %191 = load i64, ptr %190, align 8, !tbaa !21
  %192 = xor i64 %185, %191
  %193 = load ptr, ptr %16, align 8, !tbaa !26
  %194 = load i32, ptr %6, align 4, !tbaa !12
  %195 = sext i32 %194 to i64
  %196 = getelementptr inbounds i64, ptr %193, i64 %195
  store i64 %192, ptr %196, align 8, !tbaa !21
  %197 = load i64, ptr %9, align 8, !tbaa !21
  %198 = load ptr, ptr %3, align 8, !tbaa !3
  %199 = getelementptr inbounds nuw %struct.mbedtls_gcm_context, ptr %198, i32 0, i32 1
  %200 = load i32, ptr %6, align 4, !tbaa !12
  %201 = sext i32 %200 to i64
  %202 = getelementptr inbounds [16 x i64], ptr %199, i64 0, i64 %201
  %203 = load i64, ptr %202, align 8, !tbaa !21
  %204 = xor i64 %197, %203
  %205 = load ptr, ptr %15, align 8, !tbaa !26
  %206 = load i32, ptr %6, align 4, !tbaa !12
  %207 = sext i32 %206 to i64
  %208 = getelementptr inbounds i64, ptr %205, i64 %207
  store i64 %204, ptr %208, align 8, !tbaa !21
  br label %209

209:                                              ; preds = %184
  %210 = load i32, ptr %6, align 4, !tbaa !12
  %211 = add nsw i32 %210, 1
  store i32 %211, ptr %6, align 4, !tbaa !12
  br label %180, !llvm.loop !28

212:                                              ; preds = %180
  call void @llvm.lifetime.end.p0(i64 8, ptr %16) #6
  call void @llvm.lifetime.end.p0(i64 8, ptr %15) #6
  br label %213

213:                                              ; preds = %212
  %214 = load i32, ptr %5, align 4, !tbaa !12
  %215 = mul nsw i32 %214, 2
  store i32 %215, ptr %5, align 4, !tbaa !12
  br label %160, !llvm.loop !29

216:                                              ; preds = %160
  store i32 0, ptr %2, align 4
  store i32 1, ptr %13, align 4
  br label %217

217:                                              ; preds = %216, %24
  call void @llvm.lifetime.end.p0(i64 8, ptr %12) #6
  call void @llvm.lifetime.end.p0(i64 16, ptr %11) #6
  call void @llvm.lifetime.end.p0(i64 8, ptr %10) #6
  call void @llvm.lifetime.end.p0(i64 8, ptr %9) #6
  call void @llvm.lifetime.end.p0(i64 8, ptr %8) #6
  call void @llvm.lifetime.end.p0(i64 8, ptr %7) #6
  call void @llvm.lifetime.end.p0(i64 4, ptr %6) #6
  call void @llvm.lifetime.end.p0(i64 4, ptr %5) #6
  call void @llvm.lifetime.end.p0(i64 4, ptr %4) #6
  %218 = load i32, ptr %2, align 4
  ret i32 %218
}

; Function Attrs: mustprogress uwtable
define hidden i32 @mbedtls_gcm_setkey(ptr noundef %0, i32 noundef %1, ptr noundef %2, i32 noundef %3) #2 {
  %5 = alloca i32, align 4
  %6 = alloca ptr, align 8
  %7 = alloca i32, align 4
  %8 = alloca ptr, align 8
  %9 = alloca i32, align 4
  %10 = alloca i32, align 4
  %11 = alloca ptr, align 8
  %12 = alloca i32, align 4
  store ptr %0, ptr %6, align 8, !tbaa !3
  store i32 %1, ptr %7, align 4, !tbaa !8
  store ptr %2, ptr %8, align 8, !tbaa !10
  store i32 %3, ptr %9, align 4, !tbaa !12
  call void @llvm.lifetime.start.p0(i64 4, ptr %10) #6
  store i32 -110, ptr %10, align 4, !tbaa !12
  call void @llvm.lifetime.start.p0(i64 8, ptr %11) #6
  br label %13

13:                                               ; preds = %4
  br label %14

14:                                               ; preds = %13
  br label %15

15:                                               ; preds = %14
  br label %16

16:                                               ; preds = %15
  br label %17

17:                                               ; preds = %16
  br label %18

18:                                               ; preds = %17
  br label %19

19:                                               ; preds = %18
  br label %20

20:                                               ; preds = %19
  br label %21

21:                                               ; preds = %20
  %22 = load i32, ptr %7, align 4, !tbaa !8
  %23 = load i32, ptr %9, align 4, !tbaa !12
  %24 = call ptr @mbedtls_cipher_info_from_values(i32 noundef %22, i32 noundef %23, i32 noundef 1)
  store ptr %24, ptr %11, align 8, !tbaa !14
  %25 = load ptr, ptr %11, align 8, !tbaa !14
  %26 = icmp eq ptr %25, null
  br i1 %26, label %27, label %28

27:                                               ; preds = %21
  store i32 -20, ptr %5, align 4
  store i32 1, ptr %12, align 4
  br label %60

28:                                               ; preds = %21
  %29 = load ptr, ptr %11, align 8, !tbaa !14
  %30 = getelementptr inbounds nuw %struct.mbedtls_cipher_info_t, ptr %29, i32 0, i32 6
  %31 = load i32, ptr %30, align 8, !tbaa !16
  %32 = icmp ne i32 %31, 16
  br i1 %32, label %33, label %34

33:                                               ; preds = %28
  store i32 -20, ptr %5, align 4
  store i32 1, ptr %12, align 4
  br label %60

34:                                               ; preds = %28
  %35 = load ptr, ptr %6, align 8, !tbaa !3
  %36 = getelementptr inbounds nuw %struct.mbedtls_gcm_context, ptr %35, i32 0, i32 0
  call void @mbedtls_cipher_free(ptr noundef %36)
  %37 = load ptr, ptr %6, align 8, !tbaa !3
  %38 = getelementptr inbounds nuw %struct.mbedtls_gcm_context, ptr %37, i32 0, i32 0
  %39 = load ptr, ptr %11, align 8, !tbaa !14
  %40 = call i32 @mbedtls_cipher_setup(ptr noundef %38, ptr noundef %39)
  store i32 %40, ptr %10, align 4, !tbaa !12
  %41 = icmp ne i32 %40, 0
  br i1 %41, label %42, label %44

42:                                               ; preds = %34
  %43 = load i32, ptr %10, align 4, !tbaa !12
  store i32 %43, ptr %5, align 4
  store i32 1, ptr %12, align 4
  br label %60

44:                                               ; preds = %34
  %45 = load ptr, ptr %6, align 8, !tbaa !3
  %46 = getelementptr inbounds nuw %struct.mbedtls_gcm_context, ptr %45, i32 0, i32 0
  %47 = load ptr, ptr %8, align 8, !tbaa !10
  %48 = load i32, ptr %9, align 4, !tbaa !12
  %49 = call i32 @mbedtls_cipher_setkey(ptr noundef %46, ptr noundef %47, i32 noundef %48, i32 noundef 1)
  store i32 %49, ptr %10, align 4, !tbaa !12
  %50 = icmp ne i32 %49, 0
  br i1 %50, label %51, label %53

51:                                               ; preds = %44
  %52 = load i32, ptr %10, align 4, !tbaa !12
  store i32 %52, ptr %5, align 4
  store i32 1, ptr %12, align 4
  br label %60

53:                                               ; preds = %44
  %54 = load ptr, ptr %6, align 8, !tbaa !3
  %55 = call noundef i32 @_ZL13gcm_gen_tableP19mbedtls_gcm_context(ptr noundef %54)
  store i32 %55, ptr %10, align 4, !tbaa !12
  %56 = icmp ne i32 %55, 0
  br i1 %56, label %57, label %59

57:                                               ; preds = %53
  %58 = load i32, ptr %10, align 4, !tbaa !12
  store i32 %58, ptr %5, align 4
  store i32 1, ptr %12, align 4
  br label %60

59:                                               ; preds = %53
  store i32 0, ptr %5, align 4
  store i32 1, ptr %12, align 4
  br label %60

60:                                               ; preds = %59, %57, %51, %42, %33, %27
  call void @llvm.lifetime.end.p0(i64 8, ptr %11) #6
  call void @llvm.lifetime.end.p0(i64 4, ptr %10) #6
  %61 = load i32, ptr %5, align 4
  ret i32 %61
}