; Function Attrs: mustprogress uwtable
define hidden i32 @mbedtls_gcm_setkey(ptr noundef %0, i32 noundef %1, ptr noundef %2, i32 noundef %3) local_unnamed_addr #2 {
  %5 = alloca [16 x i8], align 16
  %6 = alloca i64, align 8
  %7 = tail call ptr @mbedtls_cipher_info_from_values(i32 noundef %1, i32 noundef %3, i32 noundef 1)
  %8 = icmp eq ptr %7, null
  br i1 %8, label %123, label %9

9:                                                ; preds = %4
  %10 = getelementptr inbounds nuw i8, ptr %7, i64 32
  %11 = load i32, ptr %10, align 8, !tbaa !3
  %.not = icmp eq i32 %11, 16
  br i1 %.not, label %12, label %123

12:                                               ; preds = %9
  tail call void @mbedtls_cipher_free(ptr noundef %0)
  %13 = tail call i32 @mbedtls_cipher_setup(ptr noundef %0, ptr noundef nonnull %7)
  %.not18 = icmp eq i32 %13, 0
  br i1 %.not18, label %14, label %123

14:                                               ; preds = %12
  %15 = tail call i32 @mbedtls_cipher_setkey(ptr noundef %0, ptr noundef %2, i32 noundef %3, i32 noundef 1)
  %.not19 = icmp eq i32 %15, 0
  br i1 %.not19, label %16, label %123

16:                                               ; preds = %14
  call void @llvm.lifetime.start.p0(i64 16, ptr nonnull %5) #8
  call void @llvm.lifetime.start.p0(i64 8, ptr nonnull %6) #8
  store i64 0, ptr %6, align 8, !tbaa !13
  call void @llvm.memset.p0.i64(ptr noundef nonnull align 16 dereferenceable(16) %5, i8 0, i64 16, i1 false)
  %17 = call i32 @mbedtls_cipher_update(ptr noundef %0, ptr noundef nonnull %5, i64 noundef 16, ptr noundef nonnull %5, ptr noundef nonnull %6)
  %.not.i = icmp eq i32 %17, 0
  br i1 %.not.i, label %18, label %_ZL13gcm_gen_tableP19mbedtls_gcm_context.exit

18:                                               ; preds = %16
  %19 = load i8, ptr %5, align 16, !tbaa !15
  %20 = zext i8 %19 to i64
  %21 = shl nuw nsw i64 %20, 24
  %22 = getelementptr inbounds nuw i8, ptr %5, i64 1
  %23 = load i8, ptr %22, align 1, !tbaa !15
  %24 = zext i8 %23 to i64
  %25 = shl nuw nsw i64 %24, 16
  %26 = or disjoint i64 %25, %21
  %27 = getelementptr inbounds nuw i8, ptr %5, i64 2
  %28 = load i8, ptr %27, align 2, !tbaa !15
  %29 = zext i8 %28 to i64
  %30 = shl nuw nsw i64 %29, 8
  %31 = or disjoint i64 %26, %30
  %32 = getelementptr inbounds nuw i8, ptr %5, i64 3
  %33 = load i8, ptr %32, align 1, !tbaa !15
  %34 = zext i8 %33 to i64
  %35 = or disjoint i64 %31, %34
  %36 = getelementptr inbounds nuw i8, ptr %5, i64 4
  %37 = load i8, ptr %36, align 4, !tbaa !15
  %38 = zext i8 %37 to i64
  %39 = shl nuw nsw i64 %38, 24
  %40 = getelementptr inbounds nuw i8, ptr %5, i64 5
  %41 = load i8, ptr %40, align 1, !tbaa !15
  %42 = zext i8 %41 to i64
  %43 = shl nuw nsw i64 %42, 16
  %44 = or disjoint i64 %43, %39
  %45 = getelementptr inbounds nuw i8, ptr %5, i64 6
  %46 = load i8, ptr %45, align 2, !tbaa !15
  %47 = zext i8 %46 to i64
  %48 = shl nuw nsw i64 %47, 8
  %49 = getelementptr inbounds nuw i8, ptr %5, i64 7
  %50 = load i8, ptr %49, align 1, !tbaa !15
  %51 = zext i8 %50 to i64
  %52 = shl nuw i64 %35, 32
  %53 = or disjoint i64 %44, %52
  %54 = or disjoint i64 %53, %48
  %55 = or disjoint i64 %54, %51
  %56 = getelementptr inbounds nuw i8, ptr %5, i64 8
  %57 = load i8, ptr %56, align 8, !tbaa !15
  %58 = zext i8 %57 to i64
  %59 = shl nuw nsw i64 %58, 24
  %60 = getelementptr inbounds nuw i8, ptr %5, i64 9
  %61 = load i8, ptr %60, align 1, !tbaa !15
  %62 = zext i8 %61 to i64
  %63 = shl nuw nsw i64 %62, 16
  %64 = or disjoint i64 %63, %59
  %65 = getelementptr inbounds nuw i8, ptr %5, i64 10
  %66 = load i8, ptr %65, align 2, !tbaa !15
  %67 = zext i8 %66 to i64
  %68 = shl nuw nsw i64 %67, 8
  %69 = or disjoint i64 %64, %68
  %70 = getelementptr inbounds nuw i8, ptr %5, i64 11
  %71 = load i8, ptr %70, align 1, !tbaa !15
  %72 = zext i8 %71 to i64
  %73 = or disjoint i64 %69, %72
  %74 = getelementptr inbounds nuw i8, ptr %5, i64 12
  %75 = load i8, ptr %74, align 4, !tbaa !15
  %76 = zext i8 %75 to i64
  %77 = shl nuw nsw i64 %76, 24
  %78 = getelementptr inbounds nuw i8, ptr %5, i64 13
  %79 = load i8, ptr %78, align 1, !tbaa !15
  %80 = zext i8 %79 to i64
  %81 = shl nuw nsw i64 %80, 16
  %82 = or disjoint i64 %81, %77
  %83 = getelementptr inbounds nuw i8, ptr %5, i64 14
  %84 = load i8, ptr %83, align 2, !tbaa !15
  %85 = zext i8 %84 to i64
  %86 = shl nuw nsw i64 %85, 8
  %87 = getelementptr inbounds nuw i8, ptr %5, i64 15
  %88 = load i8, ptr %87, align 1, !tbaa !15
  %89 = zext i8 %88 to i64
  %90 = shl nuw i64 %73, 32
  %91 = or disjoint i64 %82, %90
  %92 = or disjoint i64 %91, %86
  %93 = or disjoint i64 %92, %89
  %94 = getelementptr inbounds nuw i8, ptr %0, i64 72
  %95 = getelementptr inbounds nuw i8, ptr %0, i64 136
  store i64 %93, ptr %95, align 8, !tbaa !13
  %96 = getelementptr inbounds nuw i8, ptr %0, i64 200
  %97 = getelementptr inbounds nuw i8, ptr %0, i64 264
  store i64 %55, ptr %97, align 8, !tbaa !13
  store i64 0, ptr %96, align 8, !tbaa !13
  store i64 0, ptr %94, align 8, !tbaa !13
  br label %98

98:                                               ; preds = %98, %18
  %.04654.i = phi i32 [ 4, %18 ], [ %107, %98 ]
  %.04853.i = phi i64 [ %55, %18 ], [ %103, %98 ]
  %.04952.i = phi i64 [ %93, %18 ], [ %100, %98 ]
  %99 = trunc i64 %.04952.i to i1
  %100 = call i64 @llvm.fshl.i64(i64 %.04853.i, i64 %.04952.i, i64 63)
  %101 = lshr i64 %.04853.i, 1
  %102 = select i1 %99, i64 -2233785415175766016, i64 0
  %103 = xor i64 %102, %101
  %104 = zext nneg i32 %.04654.i to i64
  %105 = getelementptr inbounds nuw [16 x i64], ptr %94, i64 0, i64 %104
  store i64 %100, ptr %105, align 8, !tbaa !13
  %106 = getelementptr inbounds nuw [16 x i64], ptr %96, i64 0, i64 %104
  store i64 %103, ptr %106, align 8, !tbaa !13
  %107 = lshr i32 %.04654.i, 1
  %.not51.i = icmp samesign ult i32 %.04654.i, 2
  br i1 %.not51.i, label %.lr.ph.preheader.i, label %98, !llvm.loop !16

.lr.ph.preheader.i:                               ; preds = %98, %._crit_edge.i
  %.156.i = phi i32 [ %121, %._crit_edge.i ], [ 2, %98 ]
  %108 = zext i32 %.156.i to i64
  %109 = getelementptr inbounds nuw i64, ptr %94, i64 %108
  %110 = getelementptr inbounds nuw i64, ptr %96, i64 %108
  %111 = load i64, ptr %110, align 8, !tbaa !13
  %112 = load i64, ptr %109, align 8, !tbaa !13
  br label %.lr.ph.i

.lr.ph.i:                                         ; preds = %.lr.ph.i, %.lr.ph.preheader.i
  %indvars.iv.i = phi i64 [ 1, %.lr.ph.preheader.i ], [ %indvars.iv.next.i, %.lr.ph.i ]
  %113 = getelementptr inbounds nuw [16 x i64], ptr %96, i64 0, i64 %indvars.iv.i
  %114 = load i64, ptr %113, align 8, !tbaa !13
  %115 = xor i64 %114, %111
  %116 = getelementptr inbounds nuw i64, ptr %110, i64 %indvars.iv.i
  store i64 %115, ptr %116, align 8, !tbaa !13
  %117 = getelementptr inbounds nuw [16 x i64], ptr %94, i64 0, i64 %indvars.iv.i
  %118 = load i64, ptr %117, align 8, !tbaa !13
  %119 = xor i64 %118, %112
  %120 = getelementptr inbounds nuw i64, ptr %109, i64 %indvars.iv.i
  store i64 %119, ptr %120, align 8, !tbaa !13
  %indvars.iv.next.i = add nuw nsw i64 %indvars.iv.i, 1
  %exitcond.not.i = icmp eq i64 %indvars.iv.next.i, %108
  br i1 %exitcond.not.i, label %._crit_edge.i, label %.lr.ph.i, !llvm.loop !18

._crit_edge.i:                                    ; preds = %.lr.ph.i
  %121 = shl nuw nsw i32 %.156.i, 1
  %122 = icmp ult i32 %.156.i, 5
  br i1 %122, label %.lr.ph.preheader.i, label %_ZL13gcm_gen_tableP19mbedtls_gcm_context.exit, !llvm.loop !19

_ZL13gcm_gen_tableP19mbedtls_gcm_context.exit:    ; preds = %._crit_edge.i, %16
  %.0.i = phi i32 [ %17, %16 ], [ 0, %._crit_edge.i ]
  call void @llvm.lifetime.end.p0(i64 8, ptr nonnull %6) #8
  call void @llvm.lifetime.end.p0(i64 16, ptr nonnull %5) #8
  br label %123

123:                                              ; preds = %_ZL13gcm_gen_tableP19mbedtls_gcm_context.exit, %14, %12, %9, %4
  %.0 = phi i32 [ -20, %4 ], [ -20, %9 ], [ %13, %12 ], [ %15, %14 ], [ %.0.i, %_ZL13gcm_gen_tableP19mbedtls_gcm_context.exit ]
  ret i32 %.0
}